; Function Attrs: nounwind uwtable
define void @lv_obj_invalidate_area(ptr noundef %0, ptr nocapture noundef readonly %1) local_unnamed_addr #0 {
  %3 = alloca %struct.lv_area_t, align 4
  %4 = tail call ptr @lv_obj_get_display(ptr noundef %0) #8
  %5 = tail call zeroext i1 @lv_display_is_invalidation_enabled(ptr noundef %4) #8
  br i1 %5, label %6, label %30

6:                                                ; preds = %2
  call void @llvm.lifetime.start.p0(i64 16, ptr nonnull %3) #8
  %7 = load i32, ptr %1, align 4, !tbaa !31
  store i32 %7, ptr %3, align 4, !tbaa !31
  %8 = getelementptr inbounds nuw i8, ptr %1, i64 4
  %9 = load i32, ptr %8, align 4, !tbaa !32
  %10 = getelementptr inbounds nuw i8, ptr %3, i64 4
  store i32 %9, ptr %10, align 4, !tbaa !32
  %11 = getelementptr inbounds nuw i8, ptr %1, i64 8
  %12 = load i32, ptr %11, align 4, !tbaa !33
  %13 = getelementptr inbounds nuw i8, ptr %3, i64 8
  store i32 %12, ptr %13, align 4, !tbaa !33
  %14 = getelementptr inbounds nuw i8, ptr %1, i64 12
  %15 = load i32, ptr %14, align 4, !tbaa !34
  %16 = getelementptr inbounds nuw i8, ptr %3, i64 12
  store i32 %15, ptr %16, align 4, !tbaa !34
  %17 = call zeroext i1 @lv_obj_area_is_visible(ptr noundef %0, ptr noundef nonnull %3)
  br i1 %17, label %18, label %29

18:                                               ; preds = %6
  %19 = getelementptr inbounds nuw i8, ptr %0, i64 16
  %20 = load ptr, ptr %19, align 8, !tbaa !6
  %.not = icmp eq ptr %20, null
  br i1 %.not, label %27, label %21

21:                                               ; preds = %18
  %22 = getelementptr inbounds nuw i8, ptr %20, i64 66
  %23 = load i16, ptr %22, align 2
  %24 = and i16 %23, 3072
  %25 = icmp eq i16 %24, 2048
  br i1 %25, label %26, label %27

26:                                               ; preds = %21
  call void @lv_area_increase(ptr noundef nonnull %3, i32 noundef 5, i32 noundef 5) #8
  br label %27

27:                                               ; preds = %26, %21, %18
  %28 = call ptr @lv_obj_get_display(ptr noundef nonnull %0) #8
  call void @lv_inv_area(ptr noundef %28, ptr noundef nonnull %3) #8
  br label %29

29:                                               ; preds = %6, %27
  call void @llvm.lifetime.end.p0(i64 16, ptr nonnull %3) #8
  br label %30

30:                                               ; preds = %2, %29
  ret void
}